target datalayout = "e-m:e-p270:32:32-p271:32:32-p272:64:64-i64:64-i128:128-f80:128-n8:16:32:64-S128"
target triple = "x86_64-pc-linux-gnu"

@.str.4 = private unnamed_addr constant [5 x i8] c"year\00", align 1
@rb_cNumeric = external global i64, align 8
@rb_eTypeError = external global i64, align 8
@.str.163 = private unnamed_addr constant [25 x i8] c"invalid %s (not numeric)\00", align 1

; Function Attrs: inlinehint nounwind sspstrong willreturn memory(none) uwtable
define internal zeroext i1 @RB_TEST(i64 noundef %0) #6 {
  %2 = alloca i64, align 8
  store i64 %0, ptr %2, align 8, !tbaa !6
  %3 = load i64, ptr %2, align 8, !tbaa !6
  %4 = and i64 %3, -5
  %5 = icmp ne i64 %4, 0
  ret i1 %5
}

; Function Attrs: inlinehint nounwind sspstrong uwtable
define internal i32 @c_julian_leap_p(i32 noundef %0) #3 {
  %2 = alloca i32, align 4
  store i32 %0, ptr %2, align 4, !tbaa !19
  %3 = load i32, ptr %2, align 4, !tbaa !19
  %4 = icmp slt i32 %3, 0
  br i1 %4, label %5, label %12

5:                                                ; preds = %1
  %6 = load i32, ptr %2, align 4, !tbaa !19
  %7 = add nsw i32 %6, 1
  %8 = sub nsw i32 0, %7
  %9 = srem i32 %8, 4
  %10 = sub nsw i32 4, %9
  %11 = sub nsw i32 %10, 1
  br label %15

12:                                               ; preds = %1
  %13 = load i32, ptr %2, align 4, !tbaa !19
  %14 = srem i32 %13, 4
  br label %15

15:                                               ; preds = %12, %5
  %16 = phi i32 [ %11, %5 ], [ %14, %12 ]
  %17 = icmp eq i32 %16, 0
  %18 = zext i1 %17 to i32
  ret i32 %18
}

; Function Attrs: inlinehint nounwind sspstrong uwtable
define internal void @check_numeric(i64 noundef %0, ptr noundef %1) #3 {
  %3 = alloca i64, align 8
  %4 = alloca ptr, align 8
  store i64 %0, ptr %3, align 8, !tbaa !6
  store ptr %1, ptr %4, align 8, !tbaa !12
  %5 = load i64, ptr %3, align 8, !tbaa !6
  %6 = load i64, ptr @rb_cNumeric, align 8, !tbaa !6
  %7 = call i64 @rb_obj_is_kind_of(i64 noundef %5, i64 noundef %6)
  %8 = call zeroext i1 @RB_TEST(i64 noundef %7) #24
  br i1 %8, label %12, label %9

9:                                                ; preds = %2
  %10 = load i64, ptr @rb_eTypeError, align 8, !tbaa !6
  %11 = load ptr, ptr %4, align 8, !tbaa !12
  call void (i64, ptr, ...) @rb_raise(i64 noundef %10, ptr noundef @.str.163, ptr noundef %11) #25
  unreachable

12:                                               ; preds = %2
  ret void
}

; Function Attrs: nounwind sspstrong uwtable
define internal i64 @date_s_julian_leap_p(i64 noundef %0, i64 noundef %1) #0 {
  %3 = alloca i64, align 8
  %4 = alloca i64, align 8
  %5 = alloca i64, align 8
  %6 = alloca i32, align 4
  store i64 %0, ptr %3, align 8, !tbaa !6
  store i64 %1, ptr %4, align 8, !tbaa !6
  call void @llvm.lifetime.start.p0(i64 8, ptr %5) #23
  call void @llvm.lifetime.start.p0(i64 4, ptr %6) #23
  %7 = load i64, ptr %4, align 8, !tbaa !6
  call void @check_numeric(i64 noundef %7, ptr noundef @.str.4)
  %8 = load i64, ptr %4, align 8, !tbaa !6
  call void @decode_year(i64 noundef %8, double noundef 1.000000e+00, ptr noundef %5, ptr noundef %6)
  %9 = load i32, ptr %6, align 4, !tbaa !19
  %10 = call i32 @c_julian_leap_p(i32 noundef %9)
  %11 = icmp ne i32 %10, 0
  %12 = select i1 %11, i64 20, i64 0
  call void @llvm.lifetime.end.p0(i64 4, ptr %6) #23
  call void @llvm.lifetime.end.p0(i64 8, ptr %5) #23
  ret i64 %12
}