; Function Attrs: nounwind sspstrong uwtable
define internal range(i64 0, 21) i64 @date_s_julian_leap_p(i64 %0, i64 noundef %1) #0 {
  %3 = alloca i64, align 8
  %4 = alloca i32, align 4
  call void @llvm.lifetime.start.p0(i64 8, ptr nonnull %3) #21
  call void @llvm.lifetime.start.p0(i64 4, ptr nonnull %4) #21
  %5 = load i64, ptr @rb_cNumeric, align 8, !tbaa !6
  %6 = tail call i64 @rb_obj_is_kind_of(i64 noundef %1, i64 noundef %5) #21
  %7 = and i64 %6, -5
  %.not.i = icmp eq i64 %7, 0
  br i1 %.not.i, label %8, label %check_numeric.exit

8:                                                ; preds = %2
  %9 = load i64, ptr @rb_eTypeError, align 8, !tbaa !6
  tail call void (i64, ptr, ...) @rb_raise(i64 noundef %9, ptr noundef nonnull @.str.163, ptr noundef nonnull @.str.4) #22
  unreachable

check_numeric.exit:                               ; preds = %2
  call fastcc void @decode_year(i64 noundef %1, double noundef 1.000000e+00, ptr noundef %3, ptr noundef %4)
  %10 = load i32, ptr %4, align 4, !tbaa !33
  %11 = and i32 %10, 3
  %.not = icmp eq i32 %11, 0
  %12 = select i1 %.not, i64 20, i64 0
  call void @llvm.lifetime.end.p0(i64 4, ptr nonnull %4) #21
  call void @llvm.lifetime.end.p0(i64 8, ptr nonnull %3) #21
  ret i64 %12
}